Certificate:
    Data:
        Version: 3 (0x2)
        Serial Number: 1 (0x1)
    Signature Algorithm: sha256WithRSAEncryption
        Issuer: C=CN, ST=ZheJiang, L=HangZhou, O=mowang/emailAddress=xty362528@126.com
        Validity
            Not Before: Sep 19 11:47:18 2018 GMT
            Not After : Sep 19 11:47:18 2019 GMT
        Subject: C=CN, ST=ZheJiang, O=mowang, CN=www.mowang.com/emailAddress=xty362528@126.com
        Subject Public Key Info:
            Public Key Algorithm: rsaEncryption
                Public-Key: (2048 bit)
                Modulus:
                    00:b3:ee:ae:4b:22:24:ba:f9:db:30:3f:9d:f0:0d:
                    21:0f:33:07:d5:db:ea:4b:08:6a:de:c4:04:42:cc:
                    09:21:80:2e:fb:e0:2a:f8:b3:8d:ee:97:f9:8a:3c:
                    0c:78:04:93:fe:3d:2e:b5:f6:e0:8d:da:85:e3:aa:
                    cc:96:0b:a4:53:c5:73:fa:d5:64:12:78:cb:3f:2e:
                    77:48:59:ea:f5:2f:29:fc:e4:59:f2:d8:72:99:fe:
                    42:6d:fa:2a:e6:61:f6:b8:7b:85:3d:8d:9d:b5:90:
                    83:35:6b:1b:ac:8e:0e:fa:5c:6e:78:06:f8:db:e7:
                    a3:bc:f1:70:2b:8e:44:d6:0b:df:68:56:02:23:6d:
                    2d:ed:80:b9:85:0a:5d:82:fe:62:90:26:a6:3a:25:
                    27:69:54:7b:3a:c0:db:10:0e:9a:fa:04:a2:25:eb:
                    9e:08:28:a4:b0:65:17:10:6f:82:7e:e5:a4:e1:73:
                    de:c3:c8:a5:10:95:af:aa:b6:c1:a3:5b:0f:f8:84:
                    05:55:08:06:f3:49:c1:1f:9e:56:2d:5b:ca:81:c6:
                    6c:ba:49:96:0c:72:32:f5:da:06:d3:1c:ce:35:25:
                    9e:17:7e:90:42:ea:80:e2:bf:78:62:ee:02:6a:94:
                    9f:01:52:2e:0b:4e:23:3a:82:6c:bc:63:b0:21:0e:
                    62:d7
                Exponent: 65537 (0x10001)
        X509v3 extensions:
            X509v3 Basic Constraints: 
                CA:FALSE
            X509v3 Key Usage: 
                Digital Signature, Non Repudiation, Key Encipherment
            X509v3 Subject Alternative Name: 
                DNS:www.mowang.com, DNS:mowang.com, IP Address:10.240.149.252
    Signature Algorithm: sha256WithRSAEncryption
         85:f1:14:eb:99:0a:e8:41:66:6d:07:e3:39:67:53:a8:b2:de:
         74:a0:6e:10:85:63:f3:ab:67:65:98:a4:ff:39:5b:b6:00:8f:
         19:71:83:fd:43:3c:39:e4:f9:35:eb:4a:74:83:44:5f:95:ac:
         64:71:03:34:2a:5a:ee:03:05:97:58:31:d1:4b:f2:31:02:d6:
         58:ce:b7:7a:fb:4b:88:a7:d4:c5:b4:3d:83:29:04:c8:17:48:
         31:19:e1:21:9a:43:15:f8:8b:34:30:71:9a:17:51:2f:3f:aa:
         c4:42:2b:5d:8d:a2:8d:0a:56:ab:4b:9d:a0:62:3d:5a:9a:4e:
         d6:b8:fc:7c:48:7c:7c:6d:6c:6c:52:d0:78:7f:41:fb:a8:fc:
         6b:e8:a5:ee:0f:2b:65:31:c4:28:a4:b8:5f:3a:90:6b:fe:72:
         9f:37:8c:d7:f1:e0:77:17:b5:fc:6e:e0:0f:fe:03:d3:b7:70:
         40:75:47:5d:cf:f6:a2:1b:f4:43:73:63:b5:fa:18:d7:72:5b:
         1d:55:14:c6:4a:7a:a3:12:17:eb:d7:1d:18:b7:0f:07:4f:7a:
         5c:8c:29:8b:a5:6a:35:ad:84:32:f7:7a:9f:ea:59:e3:10:0a:
         d6:bb:4b:6c:ad:50:6a:a9:89:81:59:b4:c7:9c:ba:e9:eb:e4:
         e1:a7:71:96
-----BEGIN CERTIFICATE-----
MIIDlDCCAnygAwIBAgIBATANBgkqhkiG9w0BAQsFADBmMQswCQYDVQQGEwJDTjER
MA8GA1UECAwIWmhlSmlhbmcxETAPBgNVBAcMCEhhbmdaaG91MQ8wDQYDVQQKDAZt
b3dhbmcxIDAeBgkqhkiG9w0BCQEWEXh0eTM2MjUyOEAxMjYuY29tMB4XDTE4MDkx
OTExNDcxOFoXDTE5MDkxOTExNDcxOFowbDELMAkGA1UEBhMCQ04xETAPBgNVBAgM
CFpoZUppYW5nMQ8wDQYDVQQKDAZtb3dhbmcxFzAVBgNVBAMMDnd3dy5tb3dhbmcu
Y29tMSAwHgYJKoZIhvcNAQkBFhF4dHkzNjI1MjhAMTI2LmNvbTCCASIwDQYJKoZI
hvcNAQEBBQADggEPADCCAQoCggEBALPurksiJLr52zA/nfANIQ8zB9Xb6ksIat7E
BELMCSGALvvgKvizje6X+Yo8DHgEk/49LrX24I3aheOqzJYLpFPFc/rVZBJ4yz8u
d0hZ6vUvKfzkWfLYcpn+Qm36KuZh9rh7hT2NnbWQgzVrG6yODvpcbngG+Nvno7zx
cCuORNYL32hWAiNtLe2AuYUKXYL+YpAmpjolJ2lUezrA2xAOmvoEoiXrnggopLBl
FxBvgn7lpOFz3sPIpRCVr6q2waNbD/iEBVUIBvNJwR+eVi1byoHGbLpJlgxyMvXa
BtMczjUlnhd+kELqgOK/eGLuAmqUnwFSLgtOIzqCbLxjsCEOYtcCAwEAAaNHMEUw
CQYDVR0TBAIwADALBgNVHQ8EBAMCBeAwKwYDVR0RBCQwIoIOd3d3Lm1vd2FuZy5j
b22CCm1vd2FuZy5jb22HBArwlfwwDQYJKoZIhvcNAQELBQADggEBAIXxFOuZCuhB
Zm0H4zlnU6iy3nSgbhCFY/OrZ2WYpP85W7YAjxlxg/1DPDnk+TXrSnSDRF+VrGRx
AzQqWu4DBZdYMdFL8jEC1ljOt3r7S4in1MW0PYMpBMgXSDEZ4SGaQxX4izQwcZoX
US8/qsRCK12Noo0KVqtLnaBiPVqaTta4/HxIfHxtbGxS0Hh/Qfuo/Gvope4PK2Ux
xCikuF86kGv+cp83jNfx4HcXtfxu4A/+A9O3cEB1R13P9qIb9ENzY7X6GNdyWx1V
FMZKeqMSF+vXHRi3DwdPelyMKYulajWthDL3ep/qWeMQCta7S2ytUGqpiYFZtMec
uunr5OGncZY=
-----END CERTIFICATE-----
